; Function Attrs: nofree norecurse nosync nounwind sspstrong memory(argmem: read) uwtable
define internal fastcc range(i32 0, 2) i32 @name_match_p(ptr noundef readonly captures(none) %0, ptr noundef readonly captures(none) %1, i64 noundef range(i64 -2147483648, 2147483648) %2) unnamed_addr #12 {
  %4 = icmp eq i64 %2, 0
  br i1 %4, label %.loopexit, label %.preheader.preheader

.preheader.preheader:                             ; preds = %3
  %.pre = load i8, ptr %0, align 1, !tbaa !7
  br label %.preheader

.preheader:                                       ; preds = %.preheader.preheader, %36
  %5 = phi i8 [ %37, %36 ], [ %.pre, %.preheader.preheader ]
  %.017 = phi ptr [ %34, %36 ], [ %0, %.preheader.preheader ]
  %.015 = phi ptr [ %38, %36 ], [ %1, %.preheader.preheader ]
  %.0 = phi i64 [ %39, %36 ], [ %2, %.preheader.preheader ]
  %6 = load i8, ptr %.015, align 1, !tbaa !7
  %7 = sext i8 %6 to i32
  %8 = add nsw i32 %7, -91
  %9 = icmp ult i32 %8, -26
  %10 = or i32 %7, 32
  %11 = select i1 %9, i32 %7, i32 %10
  %12 = sext i8 %5 to i32
  %13 = icmp eq i32 %11, %12
  br i1 %13, label %.lr.ph, label %._crit_edge

.lr.ph:                                           ; preds = %.preheader, %15
  %.141 = phi i64 [ %14, %15 ], [ %.0, %.preheader ]
  %.11640 = phi ptr [ %17, %15 ], [ %.015, %.preheader ]
  %.11839 = phi ptr [ %16, %15 ], [ %.017, %.preheader ]
  %14 = add i64 %.141, -1
  %.not30 = icmp eq i64 %14, 0
  br i1 %.not30, label %.loopexit, label %15

15:                                               ; preds = %.lr.ph
  %16 = getelementptr i8, ptr %.11839, i64 1
  %17 = getelementptr i8, ptr %.11640, i64 1
  %18 = load i8, ptr %17, align 1, !tbaa !7
  %19 = sext i8 %18 to i32
  %20 = add nsw i32 %19, -91
  %21 = icmp ult i32 %20, -26
  %22 = or i32 %19, 32
  %23 = select i1 %21, i32 %19, i32 %22
  %24 = load i8, ptr %16, align 1, !tbaa !7
  %25 = sext i8 %24 to i32
  %26 = icmp eq i32 %23, %25
  br i1 %26, label %.lr.ph, label %._crit_edge, !llvm.loop !199

._crit_edge:                                      ; preds = %15, %.preheader
  %.118.lcssa = phi ptr [ %.017, %.preheader ], [ %16, %15 ]
  %.116.lcssa = phi ptr [ %.015, %.preheader ], [ %17, %15 ]
  %.1.lcssa = phi i64 [ %.0, %.preheader ], [ %14, %15 ]
  %.lcssa = phi i8 [ %6, %.preheader ], [ %18, %15 ]
  switch i8 %.lcssa, label %.loopexit [
    i8 45, label %.preheader68
    i8 95, label %.preheader68
  ]

.preheader68:                                     ; preds = %._crit_edge, %._crit_edge
  br label %27

27:                                               ; preds = %.preheader68, %27
  %.2 = phi ptr [ %34, %27 ], [ %.118.lcssa, %.preheader68 ]
  %28 = load i8, ptr %.2, align 1, !tbaa !7
  %29 = sext i8 %28 to i32
  %30 = and i32 %29, -33
  %31 = add nsw i32 %30, -91
  %narrow.i.i = icmp ult i32 %31, -26
  %32 = add nsw i32 %29, -58
  %33 = icmp ult i32 %32, -10
  %narrow.i.not = select i1 %narrow.i.i, i1 %33, i1 false
  %34 = getelementptr i8, ptr %.2, i64 1
  br i1 %narrow.i.not, label %35, label %27, !llvm.loop !200

35:                                               ; preds = %27
  switch i8 %28, label %.loopexit [
    i8 45, label %36
    i8 95, label %36
  ]

36:                                               ; preds = %35, %35
  %37 = load i8, ptr %34, align 1, !tbaa !7
  %.not29 = icmp eq i8 %37, 0
  %38 = getelementptr i8, ptr %.116.lcssa, i64 1
  %39 = add i64 %.1.lcssa, -1
  %40 = icmp eq i64 %39, 0
  %or.cond = select i1 %.not29, i1 true, i1 %40
  br i1 %or.cond, label %.loopexit, label %.preheader

.loopexit:                                        ; preds = %36, %35, %._crit_edge, %.lr.ph, %3
  %.019 = phi i32 [ 0, %3 ], [ 1, %.lr.ph ], [ 1, %36 ], [ 0, %35 ], [ 0, %._crit_edge ]
  ret i32 %.019
}